target datalayout = "e-m:e-p270:32:32-p271:32:32-p272:64:64-i64:64-i128:128-f80:128-n8:16:32:64-S128"
target triple = "x86_64-pc-linux-gnu"

%class.QString = type { %struct.QArrayDataPointer }
%struct.QArrayDataPointer = type { ptr, ptr, i64 }
%class.QSharedPointer = type { ptr, ptr }
%class.RtpPlayerDialog = type { %class.RtpBaseDialog.base, ptr, ptr, ptr, double, double, double, double, double, double, ptr, ptr, %class.QString, %class.QSharedPointer, %class.QSharedPointer.1, i8, %class.QList.2, ptr, %class.QTimer, i64, i32, ptr, i8, ptr, ptr, ptr, ptr, ptr, %class.QMultiHash, i8, i32, i8, double, ptr, %class.QPoint }
%class.RtpBaseDialog.base = type { %class.WiresharkDialog.base }
%class.WiresharkDialog.base = type <{ %class.GeometryStateDialog, ptr, i8, [7 x i8], %class.QString, %class.QList, i32, i8 }>
%class.GeometryStateDialog = type { %class.QDialog, %class.QString, ptr }
%class.QDialog = type { %class.QWidget }
%class.QWidget = type { %class.QObject, %class.QPaintDevice.base, ptr }
%class.QObject = type { ptr, %class.QScopedPointer }
%class.QScopedPointer = type { ptr }
%class.QPaintDevice.base = type <{ ptr, i16 }>
%class.QList = type { %struct.QArrayDataPointer.0 }
%struct.QArrayDataPointer.0 = type { ptr, ptr, i64 }
%class.QSharedPointer.1 = type { ptr, ptr }
%class.QList.2 = type { %struct.QArrayDataPointer.5 }
%struct.QArrayDataPointer.5 = type { ptr, ptr, i64 }
%class.QTimer = type { %class.QObject }
%class.QMultiHash = type { ptr, i64 }
%class.QPoint = type { i32, i32 }
%class.Ui_RtpPlayerDialog = type { ptr, ptr, ptr, ptr, ptr, ptr, ptr, ptr, ptr, ptr, ptr, ptr, ptr, ptr, ptr, ptr, ptr, ptr, ptr, ptr, ptr, ptr, ptr, ptr, ptr, ptr, ptr, ptr, ptr, ptr, ptr, ptr, ptr, ptr, ptr, ptr, ptr, ptr, ptr, ptr, ptr, ptr, ptr, ptr, ptr, ptr, ptr, ptr, ptr, ptr, ptr, ptr, ptr, ptr, ptr, ptr, ptr, ptr, ptr, ptr, ptr, ptr, ptr, ptr, ptr, ptr, ptr, ptr }
%class.QPointF = type { double, double }

; Function Attrs: inlinehint mustprogress nounwind null_pointer_is_valid sspstrong uwtable
define linkonce_odr noundef i32 @_ZNK6QPoint1yEv(ptr noundef align 4 dereferenceable_or_null(8) %0) #7 comdat align 2 {
  %2 = alloca ptr, align 8
  store ptr %0, ptr %2, align 8
  %3 = load ptr, ptr %2, align 8
  %4 = getelementptr inbounds nuw %class.QPoint, ptr %3, i32 0, i32 1
  %5 = load i32, ptr %4, align 4
  ret i32 %5
}

; Function Attrs: inlinehint mustprogress nounwind null_pointer_is_valid sspstrong uwtable
define linkonce_odr noundef i32 @_ZNK6QPoint1xEv(ptr noundef align 4 dereferenceable_or_null(8) %0) #7 comdat align 2 {
  %2 = alloca ptr, align 8
  store ptr %0, ptr %2, align 8
  %3 = load ptr, ptr %2, align 8
  %4 = getelementptr inbounds nuw %class.QPoint, ptr %3, i32 0, i32 0
  %5 = load i32, ptr %4, align 4
  ret i32 %5
}

; Function Attrs: inlinehint mustprogress nounwind null_pointer_is_valid sspstrong uwtable
define linkonce_odr void @_ZN7QPointFC2ERK6QPoint(ptr noundef align 8 dereferenceable_or_null(16) %0, ptr noundef align 4 dereferenceable(8) %1) unnamed_addr #7 comdat align 2 {
  %3 = alloca ptr, align 8
  %4 = alloca ptr, align 8
  store ptr %0, ptr %3, align 8
  store ptr %1, ptr %4, align 8
  %5 = load ptr, ptr %3, align 8
  %6 = getelementptr inbounds nuw %class.QPointF, ptr %5, i32 0, i32 0
  %7 = load ptr, ptr %4, align 8
  %8 = call noundef i32 @_ZNK6QPoint1xEv(ptr noundef align 4 dereferenceable_or_null(8) %7) #26
  %9 = sitofp i32 %8 to double
  store double %9, ptr %6, align 8
  %10 = getelementptr inbounds nuw %class.QPointF, ptr %5, i32 0, i32 1
  %11 = load ptr, ptr %4, align 8
  %12 = call noundef i32 @_ZNK6QPoint1yEv(ptr noundef align 4 dereferenceable_or_null(8) %11) #26
  %13 = sitofp i32 %12 to double
  store double %13, ptr %10, align 8
  ret void
}

; Function Attrs: mustprogress null_pointer_is_valid sspstrong uwtable
define void @_ZN15RtpPlayerDialog19handleItemHighlightEP15QTreeWidgetItemb(ptr noundef align 8 dereferenceable_or_null(472) %0, ptr noundef %1, i1 noundef zeroext %2) #0 align 2 {
  %4 = alloca ptr, align 8
  %5 = alloca ptr, align 8
  %6 = alloca i8, align 1
  store ptr %0, ptr %4, align 8
  store ptr %1, ptr %5, align 8
  %7 = zext i1 %2 to i8
  store i8 %7, ptr %6, align 1
  %8 = load ptr, ptr %4, align 8
  %9 = load ptr, ptr %5, align 8
  %10 = icmp ne ptr %9, null
  br i1 %10, label %11, label %41

11:                                               ; preds = %3
  %12 = load ptr, ptr %5, align 8
  %13 = getelementptr inbounds nuw %class.RtpPlayerDialog, ptr %8, i32 0, i32 21
  %14 = load ptr, ptr %13, align 8
  %15 = icmp ne ptr %12, %14
  br i1 %15, label %16, label %40

16:                                               ; preds = %11
  %17 = getelementptr inbounds nuw %class.RtpPlayerDialog, ptr %8, i32 0, i32 21
  %18 = load ptr, ptr %17, align 8
  %19 = icmp ne ptr %18, null
  br i1 %19, label %20, label %23

20:                                               ; preds = %16
  %21 = getelementptr inbounds nuw %class.RtpPlayerDialog, ptr %8, i32 0, i32 21
  %22 = load ptr, ptr %21, align 8
  call void @_ZN15RtpPlayerDialog13highlightItemEP15QTreeWidgetItemb(ptr noundef align 8 dereferenceable_or_null(472) %8, ptr noundef %22, i1 noundef zeroext false)
  br label %23

23:                                               ; preds = %20, %16
  %24 = load ptr, ptr %5, align 8
  call void @_ZN15RtpPlayerDialog13highlightItemEP15QTreeWidgetItemb(ptr noundef align 8 dereferenceable_or_null(472) %8, ptr noundef %24, i1 noundef zeroext true)
  %25 = load i8, ptr %6, align 1, !range !6, !noundef !7
  %26 = trunc i8 %25 to i1
  br i1 %26, label %27, label %33

27:                                               ; preds = %23
  %28 = getelementptr inbounds nuw %class.RtpPlayerDialog, ptr %8, i32 0, i32 1
  %29 = load ptr, ptr %28, align 8
  %30 = getelementptr inbounds nuw %class.Ui_RtpPlayerDialog, ptr %29, i32 0, i32 40
  %31 = load ptr, ptr %30, align 8
  %32 = load ptr, ptr %5, align 8
  call void @_ZN11QTreeWidget12scrollToItemEPK15QTreeWidgetItemN17QAbstractItemView10ScrollHintE(ptr noundef align 8 dereferenceable_or_null(40) %31, ptr noundef %32, i32 noundef 0)
  br label %33

33:                                               ; preds = %27, %23
  %34 = getelementptr inbounds nuw %class.RtpPlayerDialog, ptr %8, i32 0, i32 1
  %35 = load ptr, ptr %34, align 8
  %36 = getelementptr inbounds nuw %class.Ui_RtpPlayerDialog, ptr %35, i32 0, i32 39
  %37 = load ptr, ptr %36, align 8
  call void @_ZN11QCustomPlot6replotENS_15RefreshPriorityE(ptr noundef align 8 dereferenceable_or_null(513) %37, i32 noundef 2)
  %38 = load ptr, ptr %5, align 8
  %39 = getelementptr inbounds nuw %class.RtpPlayerDialog, ptr %8, i32 0, i32 21
  store ptr %38, ptr %39, align 8
  br label %40

40:                                               ; preds = %33, %11
  br label %54

41:                                               ; preds = %3
  %42 = getelementptr inbounds nuw %class.RtpPlayerDialog, ptr %8, i32 0, i32 21
  %43 = load ptr, ptr %42, align 8
  %44 = icmp ne ptr %43, null
  br i1 %44, label %45, label %53

45:                                               ; preds = %41
  %46 = getelementptr inbounds nuw %class.RtpPlayerDialog, ptr %8, i32 0, i32 21
  %47 = load ptr, ptr %46, align 8
  call void @_ZN15RtpPlayerDialog13highlightItemEP15QTreeWidgetItemb(ptr noundef align 8 dereferenceable_or_null(472) %8, ptr noundef %47, i1 noundef zeroext false)
  %48 = getelementptr inbounds nuw %class.RtpPlayerDialog, ptr %8, i32 0, i32 1
  %49 = load ptr, ptr %48, align 8
  %50 = getelementptr inbounds nuw %class.Ui_RtpPlayerDialog, ptr %49, i32 0, i32 39
  %51 = load ptr, ptr %50, align 8
  call void @_ZN11QCustomPlot6replotENS_15RefreshPriorityE(ptr noundef align 8 dereferenceable_or_null(513) %51, i32 noundef 2)
  %52 = getelementptr inbounds nuw %class.RtpPlayerDialog, ptr %8, i32 0, i32 21
  store ptr null, ptr %52, align 8
  br label %53

53:                                               ; preds = %45, %41
  br label %54

54:                                               ; preds = %53, %40
  ret void
}

; Function Attrs: mustprogress null_pointer_is_valid sspstrong uwtable
define noundef ptr @_ZN15RtpPlayerDialog16findItemByCoordsE6QPoint(ptr noundef align 8 dereferenceable_or_null(472) %0, i64 %1) #0 align 2 {
  %3 = alloca ptr, align 8
  %4 = alloca %class.QPoint, align 4
  %5 = alloca ptr, align 8
  %6 = alloca ptr, align 8
  %7 = alloca %class.QPointF, align 8
  %8 = alloca i32, align 4
  store i64 %1, ptr %4, align 4
  store ptr %0, ptr %5, align 8
  %9 = load ptr, ptr %5, align 8
  call void @llvm.lifetime.start.p0(i64 8, ptr %6) #26
  %10 = getelementptr inbounds nuw %class.RtpPlayerDialog, ptr %9, i32 0, i32 1
  %11 = load ptr, ptr %10, align 8
  %12 = getelementptr inbounds nuw %class.Ui_RtpPlayerDialog, ptr %11, i32 0, i32 39
  %13 = load ptr, ptr %12, align 8
  call void @llvm.lifetime.start.p0(i64 16, ptr %7) #26
  call void @_ZN7QPointFC2ERK6QPoint(ptr noundef align 8 dereferenceable_or_null(16) %7, ptr noundef align 4 dereferenceable(8) %4) #26
  %14 = call noundef ptr @_ZNK11QCustomPlot11plottableAtERK7QPointFbPi(ptr noundef align 8 dereferenceable_or_null(513) %13, ptr noundef align 8 dereferenceable(16) %7, i1 noundef zeroext false, ptr noundef null)
  call void @llvm.lifetime.end.p0(i64 16, ptr %7) #26
  store ptr %14, ptr %6, align 8
  %15 = load ptr, ptr %6, align 8
  %16 = icmp ne ptr %15, null
  br i1 %16, label %17, label %20

17:                                               ; preds = %2
  %18 = load ptr, ptr %6, align 8
  %19 = call noundef ptr @_ZN15RtpPlayerDialog8findItemEP20QCPAbstractPlottable(ptr noundef align 8 dereferenceable_or_null(472) %9, ptr noundef %18)
  store ptr %19, ptr %3, align 8
  store i32 1, ptr %8, align 4
  br label %21

20:                                               ; preds = %2
  store ptr null, ptr %3, align 8
  store i32 1, ptr %8, align 4
  br label %21

21:                                               ; preds = %20, %17
  call void @llvm.lifetime.end.p0(i64 8, ptr %6) #26
  %22 = load ptr, ptr %3, align 8
  ret ptr %22
}

; Function Attrs: mustprogress null_pointer_is_valid sspstrong uwtable
define void @_ZN15RtpPlayerDialog15mouseMoveUpdateEv(ptr noundef align 8 dereferenceable_or_null(472) %0) #0 align 2 {
  %2 = alloca ptr, align 8
  %3 = alloca ptr, align 8
  %4 = alloca %class.QPoint, align 4
  store ptr %0, ptr %2, align 8
  %5 = load ptr, ptr %2, align 8
  call void @_ZN15RtpPlayerDialog15updateHintLabelEv(ptr noundef align 8 dereferenceable_or_null(472) %5)
  call void @llvm.lifetime.start.p0(i64 8, ptr %3) #26
  %6 = getelementptr inbounds nuw %class.RtpPlayerDialog, ptr %5, i32 0, i32 34
  call void @llvm.memcpy.p0.p0.i64(ptr align 4 %4, ptr align 8 %6, i64 8, i1 false)
  %7 = load i64, ptr %4, align 4
  %8 = call noundef ptr @_ZN15RtpPlayerDialog16findItemByCoordsE6QPoint(ptr noundef align 8 dereferenceable_or_null(472) %5, i64 %7)
  store ptr %8, ptr %3, align 8
  %9 = load ptr, ptr %3, align 8
  call void @_ZN15RtpPlayerDialog19handleItemHighlightEP15QTreeWidgetItemb(ptr noundef align 8 dereferenceable_or_null(472) %5, ptr noundef %9, i1 noundef zeroext true)
  call void @llvm.lifetime.end.p0(i64 8, ptr %3) #26
  ret void
}