; Function Attrs: mustprogress null_pointer_is_valid sspstrong uwtable
define void @_ZN15RtpPlayerDialog15mouseMoveUpdateEv(ptr noundef align 8 dereferenceable_or_null(472) %0) #0 align 2 {
  %2 = alloca %class.QPointF, align 8
  tail call void @_ZN15RtpPlayerDialog15updateHintLabelEv(ptr noundef align 8 dereferenceable_or_null(472) %0)
  %3 = getelementptr inbounds nuw i8, ptr %0, i64 464
  %.sroa.0.0.copyload = load i64, ptr %3, align 8
  %.sroa.0.0.extract.trunc.i = trunc i64 %.sroa.0.0.copyload to i32
  %.sroa.2.0.extract.shift.i = lshr i64 %.sroa.0.0.copyload, 32
  %.sroa.2.0.extract.trunc.i = trunc nuw i64 %.sroa.2.0.extract.shift.i to i32
  %4 = getelementptr inbounds nuw i8, ptr %0, i64 144
  %5 = load ptr, ptr %4, align 8
  %6 = getelementptr inbounds nuw i8, ptr %5, i64 312
  %7 = load ptr, ptr %6, align 8
  call void @llvm.lifetime.start.p0(i64 16, ptr nonnull %2) #26
  %8 = sitofp i32 %.sroa.0.0.extract.trunc.i to double
  store double %8, ptr %2, align 8
  %9 = getelementptr inbounds nuw i8, ptr %2, i64 8
  %10 = sitofp i32 %.sroa.2.0.extract.trunc.i to double
  store double %10, ptr %9, align 8
  %11 = call noundef ptr @_ZNK11QCustomPlot11plottableAtERK7QPointFbPi(ptr noundef align 8 dereferenceable_or_null(513) %7, ptr noundef nonnull align 8 dereferenceable(16) %2, i1 noundef zeroext false, ptr noundef null)
  call void @llvm.lifetime.end.p0(i64 16, ptr nonnull %2) #26
  %.not.i = icmp eq ptr %11, null
  br i1 %.not.i, label %_ZN15RtpPlayerDialog16findItemByCoordsE6QPoint.exit.thread, label %_ZN15RtpPlayerDialog16findItemByCoordsE6QPoint.exit

_ZN15RtpPlayerDialog16findItemByCoordsE6QPoint.exit.thread: ; preds = %1
  %12 = getelementptr inbounds nuw i8, ptr %0, i64 360
  %13 = load ptr, ptr %12, align 8
  br label %24

_ZN15RtpPlayerDialog16findItemByCoordsE6QPoint.exit: ; preds = %1
  %14 = call noundef ptr @_ZN15RtpPlayerDialog8findItemEP20QCPAbstractPlottable(ptr noundef readonly align 8 dereferenceable_or_null(472) %0, ptr noundef nonnull %11)
  %.not.i2 = icmp eq ptr %14, null
  %15 = getelementptr inbounds nuw i8, ptr %0, i64 360
  %16 = load ptr, ptr %15, align 8
  br i1 %.not.i2, label %24, label %17

17:                                               ; preds = %_ZN15RtpPlayerDialog16findItemByCoordsE6QPoint.exit
  %.not9.i = icmp eq ptr %14, %16
  br i1 %.not9.i, label %_ZN15RtpPlayerDialog19handleItemHighlightEP15QTreeWidgetItemb.exit, label %18

18:                                               ; preds = %17
  %.not10.i = icmp eq ptr %16, null
  br i1 %.not10.i, label %20, label %19

19:                                               ; preds = %18
  call void @_ZN15RtpPlayerDialog13highlightItemEP15QTreeWidgetItemb(ptr noundef align 8 dereferenceable_or_null(472) %0, ptr noundef nonnull %16, i1 noundef zeroext false)
  br label %20

20:                                               ; preds = %19, %18
  call void @_ZN15RtpPlayerDialog13highlightItemEP15QTreeWidgetItemb(ptr noundef align 8 dereferenceable_or_null(472) %0, ptr noundef nonnull %14, i1 noundef zeroext true)
  %21 = load ptr, ptr %4, align 8
  %22 = getelementptr inbounds nuw i8, ptr %21, i64 320
  %23 = load ptr, ptr %22, align 8
  call void @_ZN11QTreeWidget12scrollToItemEPK15QTreeWidgetItemN17QAbstractItemView10ScrollHintE(ptr noundef align 8 dereferenceable_or_null(40) %23, ptr noundef nonnull %14, i32 noundef 0)
  br label %.sink.split.i

24:                                               ; preds = %_ZN15RtpPlayerDialog16findItemByCoordsE6QPoint.exit.thread, %_ZN15RtpPlayerDialog16findItemByCoordsE6QPoint.exit
  %25 = phi ptr [ %13, %_ZN15RtpPlayerDialog16findItemByCoordsE6QPoint.exit.thread ], [ %16, %_ZN15RtpPlayerDialog16findItemByCoordsE6QPoint.exit ]
  %26 = phi ptr [ %12, %_ZN15RtpPlayerDialog16findItemByCoordsE6QPoint.exit.thread ], [ %15, %_ZN15RtpPlayerDialog16findItemByCoordsE6QPoint.exit ]
  %.not8.i = icmp eq ptr %25, null
  br i1 %.not8.i, label %_ZN15RtpPlayerDialog19handleItemHighlightEP15QTreeWidgetItemb.exit, label %27

27:                                               ; preds = %24
  call void @_ZN15RtpPlayerDialog13highlightItemEP15QTreeWidgetItemb(ptr noundef align 8 dereferenceable_or_null(472) %0, ptr noundef nonnull %25, i1 noundef zeroext false)
  br label %.sink.split.i

.sink.split.i:                                    ; preds = %27, %20
  %28 = phi ptr [ %26, %27 ], [ %15, %20 ]
  %.sink.i = phi ptr [ null, %27 ], [ %14, %20 ]
  %29 = load ptr, ptr %4, align 8
  %30 = getelementptr inbounds nuw i8, ptr %29, i64 312
  %31 = load ptr, ptr %30, align 8
  call void @_ZN11QCustomPlot6replotENS_15RefreshPriorityE(ptr noundef align 8 dereferenceable_or_null(513) %31, i32 noundef 2)
  store ptr %.sink.i, ptr %28, align 8
  br label %_ZN15RtpPlayerDialog19handleItemHighlightEP15QTreeWidgetItemb.exit

_ZN15RtpPlayerDialog19handleItemHighlightEP15QTreeWidgetItemb.exit: ; preds = %17, %24, %.sink.split.i
  ret void
}